; Function Attrs: nounwind uwtable
define hidden void @zim_ArrayIterator___construct(ptr nocapture noundef readonly %0, ptr nocapture readnone %1) #0 {
  %3 = alloca ptr, align 8
  %4 = alloca i64, align 8
  %5 = getelementptr inbounds i8, ptr %0, i64 32
  store i64 0, ptr %4, align 8
  %6 = getelementptr inbounds i8, ptr %0, i64 44
  %7 = load i32, ptr %6, align 4
  %8 = icmp eq i32 %7, 0
  br i1 %8, label %23, label %9

9:                                                ; preds = %2
  %10 = call i32 (i32, ptr, ...) @zend_parse_parameters(i32 noundef %7, ptr noundef nonnull @.str.22, ptr noundef nonnull %3, ptr noundef nonnull %4) #11
  %11 = icmp eq i32 %10, -1
  br i1 %11, label %12, label %15

12:                                               ; preds = %9
  %13 = load ptr, ptr getelementptr inbounds (%struct._zend_executor_globals, ptr @executor_globals, i64 0, i32 50), align 8
  %14 = icmp ne ptr %13, null
  call void @llvm.assume(i1 %14)
  br label %23

15:                                               ; preds = %9
  %16 = load ptr, ptr %5, align 8
  %17 = getelementptr inbounds i8, ptr %16, i64 -88
  %18 = load i64, ptr %4, align 8
  %19 = and i64 %18, 65535
  store i64 %19, ptr %4, align 8
  %20 = load ptr, ptr %3, align 8
  %21 = load i32, ptr %6, align 4
  %22 = icmp eq i32 %21, 1
  call fastcc void @spl_array_set_array(ptr noundef nonnull %5, ptr noundef nonnull %17, ptr noundef %20, i64 noundef %19, i1 noundef zeroext %22)
  br label %23

23:                                               ; preds = %2, %15, %12
  ret void
}